; Function Attrs: nounwind uwtable
define hidden range(i32 0, 2) i32 @luaT_callorderTM(ptr noundef %0, ptr noundef %1, ptr noundef %2, i32 noundef %3) local_unnamed_addr #0 {
  %5 = getelementptr inbounds nuw i8, ptr %0, i64 16
  %6 = load ptr, ptr %5, align 8, !tbaa !31
  %7 = tail call fastcc i32 @callbinTM(ptr noundef %0, ptr noundef %1, ptr noundef %2, ptr noundef %6, i32 noundef %3)
  %8 = icmp sgt i32 %7, -1
  br i1 %8, label %9, label %14

9:                                                ; preds = %4
  %10 = icmp ne i32 %7, 1
  %11 = and i32 %7, 15
  %12 = icmp ne i32 %11, 0
  %.not11 = and i1 %10, %12
  %13 = zext i1 %.not11 to i32
  ret i32 %13

14:                                               ; preds = %4
  tail call void @luaG_ordererror(ptr noundef nonnull %0, ptr noundef %1, ptr noundef %2) #6
  unreachable
}